target datalayout = "e-m:e-p270:32:32-p271:32:32-p272:64:64-i64:64-i128:128-f80:128-n8:16:32:64-S128"
target triple = "x86_64-unknown-linux-gnu"

%"class.boost::shared_ptr" = type { ptr, %"class.boost::detail::shared_count" }
%"class.boost::detail::shared_count" = type { ptr }
%"class.std::vector" = type { %"struct.std::_Vector_base" }
%"struct.std::_Vector_base" = type { %"struct.std::_Vector_base<boost::shared_ptr<QuantLib::Fdm1dMesher>, std::allocator<boost::shared_ptr<QuantLib::Fdm1dMesher>>>::_Vector_impl" }
%"struct.std::_Vector_base<boost::shared_ptr<QuantLib::Fdm1dMesher>, std::allocator<boost::shared_ptr<QuantLib::Fdm1dMesher>>>::_Vector_impl" = type { %"struct.std::_Vector_base<boost::shared_ptr<QuantLib::Fdm1dMesher>, std::allocator<boost::shared_ptr<QuantLib::Fdm1dMesher>>>::_Vector_impl_data" }
%"struct.std::_Vector_base<boost::shared_ptr<QuantLib::Fdm1dMesher>, std::allocator<boost::shared_ptr<QuantLib::Fdm1dMesher>>>::_Vector_impl_data" = type { ptr, ptr, ptr }
%"class.boost::shared_ptr.0" = type { ptr, %"class.boost::detail::shared_count" }
%"class.QuantLib::FdmMesherComposite" = type { %"class.QuantLib::FdmMesher", %"class.std::vector" }
%"class.QuantLib::FdmMesher" = type { ptr, %"class.boost::shared_ptr" }
%"class.std::vector.6" = type { %"struct.std::_Vector_base.7" }
%"struct.std::_Vector_base.7" = type { %"struct.std::_Vector_base<unsigned long, std::allocator<unsigned long>>::_Vector_impl" }
%"struct.std::_Vector_base<unsigned long, std::allocator<unsigned long>>::_Vector_impl" = type { %"struct.std::_Vector_base<unsigned long, std::allocator<unsigned long>>::_Vector_impl_data" }
%"struct.std::_Vector_base<unsigned long, std::allocator<unsigned long>>::_Vector_impl_data" = type { ptr, ptr, ptr }
%"class.QuantLib::Fdm1dMesher" = type { ptr, %"class.std::vector.1", %"class.std::vector.1", %"class.std::vector.1" }
%"class.std::vector.1" = type { %"struct.std::_Vector_base.2" }
%"struct.std::_Vector_base.2" = type { %"struct.std::_Vector_base<double, std::allocator<double>>::_Vector_impl" }
%"struct.std::_Vector_base<double, std::allocator<double>>::_Vector_impl" = type { %"struct.std::_Vector_base<double, std::allocator<double>>::_Vector_impl_data" }
%"struct.std::_Vector_base<double, std::allocator<double>>::_Vector_impl_data" = type { ptr, ptr, ptr }
%"class.QuantLib::FdmLinearOpIterator" = type { i64, %"class.std::vector.6", %"class.std::vector.6" }

@.str.7 = private unnamed_addr constant [8 x i8] c"px != 0\00", align 1
@__PRETTY_FUNCTION__._ZNK5boost10shared_ptrIN8QuantLib11Fdm1dMesherEEptEv = private unnamed_addr constant [139 x i8] c"typename boost::detail::sp_member_access<T>::type boost::shared_ptr<QuantLib::Fdm1dMesher>::operator->() const [T = QuantLib::Fdm1dMesher]\00", align 1
@.str.8 = private unnamed_addr constant [102 x i8] c"generated/home/dtcxzyw/WorkSpace/SDK/vcpkg/installed/x64-linux/include/boost/smart_ptr/shared_ptr.hpp\00", align 1

; Function Attrs: mustprogress nounwind uwtable
define linkonce_odr noundef nonnull align 8 dereferenceable(8) ptr @_ZNKSt6vectorIdSaIdEEixEm(ptr noundef nonnull align 8 dereferenceable(24) %this, i64 noundef %__n) #2 comdat align 2 {
entry:
  %this.addr = alloca ptr, align 8
  %__n.addr = alloca i64, align 8
  store ptr %this, ptr %this.addr, align 8, !tbaa !3
  store i64 %__n, ptr %__n.addr, align 8, !tbaa !13
  %this1 = load ptr, ptr %this.addr, align 8
  %_M_impl = getelementptr inbounds nuw %"struct.std::_Vector_base.2", ptr %this1, i32 0, i32 0
  %_M_start = getelementptr inbounds nuw %"struct.std::_Vector_base<double, std::allocator<double>>::_Vector_impl_data", ptr %_M_impl, i32 0, i32 0
  %0 = load ptr, ptr %_M_start, align 8, !tbaa !44
  %1 = load i64, ptr %__n.addr, align 8, !tbaa !13
  %add.ptr = getelementptr inbounds nuw double, ptr %0, i64 %1
  ret ptr %add.ptr
}

; Function Attrs: mustprogress nounwind uwtable
define linkonce_odr noundef double @_ZNK8QuantLib11Fdm1dMesher8locationEm(ptr noundef nonnull align 8 dereferenceable(80) %this, i64 noundef %index) #2 comdat align 2 {
entry:
  %this.addr = alloca ptr, align 8
  %index.addr = alloca i64, align 8
  store ptr %this, ptr %this.addr, align 8, !tbaa !3
  store i64 %index, ptr %index.addr, align 8, !tbaa !13
  %this1 = load ptr, ptr %this.addr, align 8
  %locations_ = getelementptr inbounds nuw %"class.QuantLib::Fdm1dMesher", ptr %this1, i32 0, i32 1
  %0 = load i64, ptr %index.addr, align 8, !tbaa !13
  %call = call noundef nonnull align 8 dereferenceable(8) ptr @_ZNKSt6vectorIdSaIdEEixEm(ptr noundef nonnull align 8 dereferenceable(24) %locations_, i64 noundef %0) #16
  %1 = load double, ptr %call, align 8, !tbaa !27
  ret double %1
}

; Function Attrs: mustprogress nounwind uwtable
define linkonce_odr noundef nonnull align 8 dereferenceable(8) ptr @_ZNKSt6vectorImSaImEEixEm(ptr noundef nonnull align 8 dereferenceable(24) %this, i64 noundef %__n) #2 comdat align 2 {
entry:
  %this.addr = alloca ptr, align 8
  %__n.addr = alloca i64, align 8
  store ptr %this, ptr %this.addr, align 8, !tbaa !3
  store i64 %__n, ptr %__n.addr, align 8, !tbaa !13
  %this1 = load ptr, ptr %this.addr, align 8
  %_M_impl = getelementptr inbounds nuw %"struct.std::_Vector_base.7", ptr %this1, i32 0, i32 0
  %_M_start = getelementptr inbounds nuw %"struct.std::_Vector_base<unsigned long, std::allocator<unsigned long>>::_Vector_impl_data", ptr %_M_impl, i32 0, i32 0
  %0 = load ptr, ptr %_M_start, align 8, !tbaa !25
  %1 = load i64, ptr %__n.addr, align 8, !tbaa !13
  %add.ptr = getelementptr inbounds nuw i64, ptr %0, i64 %1
  ret ptr %add.ptr
}

; Function Attrs: mustprogress nounwind uwtable
define linkonce_odr noundef nonnull align 8 dereferenceable(24) ptr @_ZNK8QuantLib19FdmLinearOpIterator11coordinatesEv(ptr noundef nonnull align 8 dereferenceable(56) %this) #2 comdat align 2 {
entry:
  %this.addr = alloca ptr, align 8
  store ptr %this, ptr %this.addr, align 8, !tbaa !3
  %this1 = load ptr, ptr %this.addr, align 8
  %coordinates_ = getelementptr inbounds nuw %"class.QuantLib::FdmLinearOpIterator", ptr %this1, i32 0, i32 2
  ret ptr %coordinates_
}

; Function Attrs: mustprogress uwtable
define linkonce_odr noundef ptr @_ZNK5boost10shared_ptrIN8QuantLib11Fdm1dMesherEEptEv(ptr noundef nonnull align 8 dereferenceable(16) %this) #0 comdat align 2 {
entry:
  %this.addr = alloca ptr, align 8
  store ptr %this, ptr %this.addr, align 8, !tbaa !3
  %this1 = load ptr, ptr %this.addr, align 8
  %px = getelementptr inbounds nuw %"class.boost::shared_ptr.0", ptr %this1, i32 0, i32 0
  %0 = load ptr, ptr %px, align 8, !tbaa !16
  %cmp = icmp ne ptr %0, null
  %lnot = xor i1 %cmp, true
  %lnot2 = xor i1 %lnot, true
  %conv = zext i1 %lnot2 to i64
  %expval = call i64 @llvm.expect.i64(i64 %conv, i64 1)
  %tobool = icmp ne i64 %expval, 0
  br i1 %tobool, label %cond.true, label %cond.false

cond.true:                                        ; preds = %entry
  br label %cond.end

cond.false:                                       ; preds = %entry
  call void @_ZN5boost16assertion_failedEPKcS1_S1_l(ptr noundef @.str.7, ptr noundef @__PRETTY_FUNCTION__._ZNK5boost10shared_ptrIN8QuantLib11Fdm1dMesherEEptEv, ptr noundef @.str.8, i64 noundef 784)
  br label %cond.end

cond.end:                                         ; preds = %cond.false, %cond.true
  %px3 = getelementptr inbounds nuw %"class.boost::shared_ptr.0", ptr %this1, i32 0, i32 0
  %1 = load ptr, ptr %px3, align 8, !tbaa !16
  ret ptr %1
}

; Function Attrs: mustprogress nounwind uwtable
define linkonce_odr noundef nonnull align 8 dereferenceable(16) ptr @_ZNKSt6vectorIN5boost10shared_ptrIN8QuantLib11Fdm1dMesherEEESaIS4_EEixEm(ptr noundef nonnull align 8 dereferenceable(24) %this, i64 noundef %__n) #2 comdat align 2 {
entry:
  %this.addr = alloca ptr, align 8
  %__n.addr = alloca i64, align 8
  store ptr %this, ptr %this.addr, align 8, !tbaa !3
  store i64 %__n, ptr %__n.addr, align 8, !tbaa !13
  %this1 = load ptr, ptr %this.addr, align 8
  %_M_impl = getelementptr inbounds nuw %"struct.std::_Vector_base", ptr %this1, i32 0, i32 0
  %_M_start = getelementptr inbounds nuw %"struct.std::_Vector_base<boost::shared_ptr<QuantLib::Fdm1dMesher>, std::allocator<boost::shared_ptr<QuantLib::Fdm1dMesher>>>::_Vector_impl_data", ptr %_M_impl, i32 0, i32 0
  %0 = load ptr, ptr %_M_start, align 8, !tbaa !19
  %1 = load i64, ptr %__n.addr, align 8, !tbaa !13
  %add.ptr = getelementptr inbounds nuw %"class.boost::shared_ptr.0", ptr %0, i64 %1
  ret ptr %add.ptr
}

; Function Attrs: mustprogress uwtable
define noundef double @_ZNK8QuantLib18FdmMesherComposite8locationERKNS_19FdmLinearOpIteratorEm(ptr noundef nonnull align 8 dereferenceable(48) %this, ptr noundef nonnull align 8 dereferenceable(56) %iter, i64 noundef %direction) unnamed_addr #0 align 2 {
entry:
  %this.addr = alloca ptr, align 8
  %iter.addr = alloca ptr, align 8
  %direction.addr = alloca i64, align 8
  store ptr %this, ptr %this.addr, align 8, !tbaa !3
  store ptr %iter, ptr %iter.addr, align 8, !tbaa !3
  store i64 %direction, ptr %direction.addr, align 8, !tbaa !13
  %this1 = load ptr, ptr %this.addr, align 8
  %mesher_ = getelementptr inbounds nuw %"class.QuantLib::FdmMesherComposite", ptr %this1, i32 0, i32 1
  %0 = load i64, ptr %direction.addr, align 8, !tbaa !13
  %call = call noundef nonnull align 8 dereferenceable(16) ptr @_ZNKSt6vectorIN5boost10shared_ptrIN8QuantLib11Fdm1dMesherEEESaIS4_EEixEm(ptr noundef nonnull align 8 dereferenceable(24) %mesher_, i64 noundef %0) #16
  %call2 = call noundef ptr @_ZNK5boost10shared_ptrIN8QuantLib11Fdm1dMesherEEptEv(ptr noundef nonnull align 8 dereferenceable(16) %call)
  %1 = load ptr, ptr %iter.addr, align 8, !tbaa !3
  %call3 = call noundef nonnull align 8 dereferenceable(24) ptr @_ZNK8QuantLib19FdmLinearOpIterator11coordinatesEv(ptr noundef nonnull align 8 dereferenceable(56) %1)
  %2 = load i64, ptr %direction.addr, align 8, !tbaa !13
  %call4 = call noundef nonnull align 8 dereferenceable(8) ptr @_ZNKSt6vectorImSaImEEixEm(ptr noundef nonnull align 8 dereferenceable(24) %call3, i64 noundef %2) #16
  %3 = load i64, ptr %call4, align 8, !tbaa !13
  %call5 = call noundef double @_ZNK8QuantLib11Fdm1dMesher8locationEm(ptr noundef nonnull align 8 dereferenceable(80) %call2, i64 noundef %3)
  ret double %call5
}